target datalayout = "e-m:e-p270:32:32-p271:32:32-p272:64:64-i64:64-i128:128-f80:128-n8:16:32:64-S128"
target triple = "x86_64-pc-linux-gnu"

%"class.std::__cxx11::basic_string" = type { %"struct.std::__cxx11::basic_string<char>::_Alloc_hider", i64, %union.anon }
%"struct.std::__cxx11::basic_string<char>::_Alloc_hider" = type { ptr }
%union.anon = type { i64, [8 x i8] }
%"struct.xgboost::collective::Result" = type { %"class.std::unique_ptr" }
%"class.std::unique_ptr" = type { %"struct.std::__uniq_ptr_data" }
%"struct.std::__uniq_ptr_data" = type { %"class.std::__uniq_ptr_impl" }
%"class.std::__uniq_ptr_impl" = type { %"class.std::tuple" }
%"class.std::tuple" = type { %"struct.std::_Tuple_impl" }
%"struct.std::_Tuple_impl" = type { %"struct.std::_Head_base.1" }
%"struct.std::_Head_base.1" = type { ptr }
%"class.xgboost::common::Span" = type { i64, ptr }
%class.anon = type { ptr, ptr, ptr }
%"class.xgboost::collective::Comm" = type { ptr, %"class.std::enable_shared_from_this", i32, i32, %"class.std::chrono::duration", i32, %"struct.xgboost::collective::proto::PeerInfo", i32, %"class.std::thread", i32, %"class.std::__cxx11::basic_string", %"class.std::vector", %"class.std::shared_ptr" }
%"class.std::enable_shared_from_this" = type { %"class.std::weak_ptr" }
%"class.std::weak_ptr" = type { %"class.std::__weak_ptr" }
%"class.std::__weak_ptr" = type { ptr, %"class.std::__weak_count" }
%"class.std::__weak_count" = type { ptr }
%"class.std::chrono::duration" = type { i64 }
%"struct.xgboost::collective::proto::PeerInfo" = type { %"class.std::__cxx11::basic_string", i32, i32 }
%"class.std::thread" = type { %"class.std::thread::id" }
%"class.std::thread::id" = type { i64 }
%"class.std::vector" = type { %"struct.std::_Vector_base" }
%"struct.std::_Vector_base" = type { %"struct.std::_Vector_base<std::shared_ptr<xgboost::collective::Channel>, std::allocator<std::shared_ptr<xgboost::collective::Channel>>>::_Vector_impl" }
%"struct.std::_Vector_base<std::shared_ptr<xgboost::collective::Channel>, std::allocator<std::shared_ptr<xgboost::collective::Channel>>>::_Vector_impl" = type { %"struct.std::_Vector_base<std::shared_ptr<xgboost::collective::Channel>, std::allocator<std::shared_ptr<xgboost::collective::Channel>>>::_Vector_impl_data" }
%"struct.std::_Vector_base<std::shared_ptr<xgboost::collective::Channel>, std::allocator<std::shared_ptr<xgboost::collective::Channel>>>::_Vector_impl_data" = type { ptr, ptr, ptr }
%"class.std::shared_ptr" = type { %"class.std::__shared_ptr" }
%"class.std::__shared_ptr" = type { ptr, %"class.std::__shared_count" }
%"class.std::__shared_count" = type { ptr }

; Function Attrs: mustprogress nounwind uwtable
define linkonce_odr void @_ZNSt10_Head_baseILm1ESt14default_deleteIN7xgboost10collective6detail10ResultImplEELb1EEC2Ev(ptr noundef nonnull align 1 dereferenceable(1) %0) unnamed_addr #5 comdat align 2 {
  %2 = alloca ptr, align 8
  store ptr %0, ptr %2, align 8, !tbaa !61
  ret void
}

; Function Attrs: mustprogress nounwind uwtable
define linkonce_odr void @_ZNSt10_Head_baseILm0EPN7xgboost10collective6detail10ResultImplELb0EEC2Ev(ptr noundef nonnull align 8 dereferenceable(8) %0) unnamed_addr #5 comdat align 2 {
  %2 = alloca ptr, align 8
  store ptr %0, ptr %2, align 8, !tbaa !56
  %3 = load ptr, ptr %2, align 8
  %4 = getelementptr inbounds nuw %"struct.std::_Head_base.1", ptr %3, i32 0, i32 0
  store ptr null, ptr %4, align 8, !tbaa !58
  ret void
}

; Function Attrs: mustprogress uwtable
define linkonce_odr void @_ZNSt11_Tuple_implILm1EJSt14default_deleteIN7xgboost10collective6detail10ResultImplEEEEC2Ev(ptr noundef nonnull align 1 dereferenceable(1) %0) unnamed_addr #4 comdat align 2 {
  %2 = alloca ptr, align 8
  store ptr %0, ptr %2, align 8, !tbaa !54
  %3 = load ptr, ptr %2, align 8
  call void @_ZNSt10_Head_baseILm1ESt14default_deleteIN7xgboost10collective6detail10ResultImplEELb1EEC2Ev(ptr noundef nonnull align 1 dereferenceable(1) %3)
  ret void
}

; Function Attrs: noinline noreturn nounwind uwtable
define linkonce_odr hidden void @__clang_call_terminate(ptr noundef %0) #8 comdat {
  %2 = call ptr @__cxa_begin_catch(ptr %0) #3
  call void @_ZSt9terminatev() #22
  unreachable
}

; Function Attrs: mustprogress uwtable
define linkonce_odr void @_ZNSt11_Tuple_implILm0EJPN7xgboost10collective6detail10ResultImplESt14default_deleteIS3_EEEC2Ev(ptr noundef nonnull align 8 dereferenceable(8) %0) unnamed_addr #4 comdat align 2 {
  %2 = alloca ptr, align 8
  store ptr %0, ptr %2, align 8, !tbaa !52
  %3 = load ptr, ptr %2, align 8
  call void @_ZNSt11_Tuple_implILm1EJSt14default_deleteIN7xgboost10collective6detail10ResultImplEEEEC2Ev(ptr noundef nonnull align 1 dereferenceable(1) %3)
  call void @_ZNSt10_Head_baseILm0EPN7xgboost10collective6detail10ResultImplELb0EEC2Ev(ptr noundef nonnull align 8 dereferenceable(8) %3)
  ret void
}

; Function Attrs: mustprogress nounwind uwtable
define linkonce_odr void @_ZNSt5tupleIJPN7xgboost10collective6detail10ResultImplESt14default_deleteIS3_EEEC2ILb1ETnNSt9enable_ifIXclsr17_TupleConstraintsIXT_ES4_S6_EE37__is_implicitly_default_constructibleEEbE4typeELb1EEEv(ptr noundef nonnull align 8 dereferenceable(8) %0) unnamed_addr #5 comdat align 2 personality ptr @__gxx_personality_v0 {
  %2 = alloca ptr, align 8
  store ptr %0, ptr %2, align 8, !tbaa !50
  %3 = load ptr, ptr %2, align 8
  invoke void @_ZNSt11_Tuple_implILm0EJPN7xgboost10collective6detail10ResultImplESt14default_deleteIS3_EEEC2Ev(ptr noundef nonnull align 8 dereferenceable(8) %3)
          to label %4 unwind label %5

4:                                                ; preds = %1
  ret void

5:                                                ; preds = %1
  %6 = landingpad { ptr, i32 }
          catch ptr null
  %7 = extractvalue { ptr, i32 } %6, 0
  call void @__clang_call_terminate(ptr %7) #22
  unreachable
}

; Function Attrs: mustprogress nounwind uwtable
define linkonce_odr void @_ZNSt15__uniq_ptr_implIN7xgboost10collective6detail10ResultImplESt14default_deleteIS3_EEC2Ev(ptr noundef nonnull align 8 dereferenceable(8) %0) unnamed_addr #5 comdat align 2 {
  %2 = alloca ptr, align 8
  store ptr %0, ptr %2, align 8, !tbaa !48
  %3 = load ptr, ptr %2, align 8
  %4 = getelementptr inbounds nuw %"class.std::__uniq_ptr_impl", ptr %3, i32 0, i32 0
  call void @_ZNSt5tupleIJPN7xgboost10collective6detail10ResultImplESt14default_deleteIS3_EEEC2ILb1ETnNSt9enable_ifIXclsr17_TupleConstraintsIXT_ES4_S6_EE37__is_implicitly_default_constructibleEEbE4typeELb1EEEv(ptr noundef nonnull align 8 dereferenceable(8) %4) #3
  ret void
}

; Function Attrs: inlinehint mustprogress nounwind uwtable
define linkonce_odr void @_ZNSt15__uniq_ptr_dataIN7xgboost10collective6detail10ResultImplESt14default_deleteIS3_ELb1ELb1EEC2Ev(ptr noundef nonnull align 8 dereferenceable(8) %0) unnamed_addr #6 comdat align 2 {
  %2 = alloca ptr, align 8
  store ptr %0, ptr %2, align 8, !tbaa !46
  %3 = load ptr, ptr %2, align 8
  call void @_ZNSt15__uniq_ptr_implIN7xgboost10collective6detail10ResultImplESt14default_deleteIS3_EEC2Ev(ptr noundef nonnull align 8 dereferenceable(8) %3) #3
  ret void
}

; Function Attrs: mustprogress nounwind uwtable
define linkonce_odr void @_ZNSt10unique_ptrIN7xgboost10collective6detail10ResultImplESt14default_deleteIS3_EEC2IS5_vEEDn(ptr noundef nonnull align 8 dereferenceable(8) %0, ptr %1) unnamed_addr #5 comdat align 2 {
  %3 = alloca ptr, align 8
  %4 = alloca ptr, align 8
  store ptr %0, ptr %3, align 8, !tbaa !42
  store ptr %1, ptr %4, align 8, !tbaa !44
  %5 = load ptr, ptr %3, align 8
  %6 = getelementptr inbounds nuw %"class.std::unique_ptr", ptr %5, i32 0, i32 0
  call void @llvm.memset.p0.i64(ptr align 8 %6, i8 0, i64 8, i1 false)
  call void @_ZNSt15__uniq_ptr_dataIN7xgboost10collective6detail10ResultImplESt14default_deleteIS3_ELb1ELb1EEC2Ev(ptr noundef nonnull align 8 dereferenceable(8) %6) #3
  ret void
}

; Function Attrs: mustprogress nounwind uwtable
define linkonce_odr noundef i64 @_ZNK7xgboost6common4SpanIaLm18446744073709551615EE4sizeEv(ptr noundef nonnull align 8 dereferenceable(16) %0) #5 comdat align 2 {
  %2 = alloca ptr, align 8
  store ptr %0, ptr %2, align 8, !tbaa !12
  %3 = load ptr, ptr %2, align 8
  %4 = getelementptr inbounds nuw %"class.xgboost::common::Span", ptr %3, i32 0, i32 0
  %5 = load i64, ptr %4, align 8, !tbaa !63
  ret i64 %5
}

; Function Attrs: mustprogress nounwind uwtable
define linkonce_odr void @_ZN7xgboost10collective6ResultC2Ev(ptr noundef nonnull align 8 dereferenceable(8) %0) unnamed_addr #5 comdat align 2 {
  %2 = alloca ptr, align 8
  store ptr %0, ptr %2, align 8, !tbaa !40
  %3 = load ptr, ptr %2, align 8
  %4 = getelementptr inbounds nuw %"struct.xgboost::collective::Result", ptr %3, i32 0, i32 0
  call void @_ZNSt10unique_ptrIN7xgboost10collective6detail10ResultImplESt14default_deleteIS3_EEC2IS5_vEEDn(ptr noundef nonnull align 8 dereferenceable(8) %4, ptr null) #3
  ret void
}

; Function Attrs: mustprogress nounwind uwtable
define linkonce_odr noundef zeroext i1 @_ZNK7xgboost10collective4Comm13IsDistributedEv(ptr noundef nonnull align 8 dereferenceable(184) %0) #5 comdat align 2 {
  %2 = alloca ptr, align 8
  store ptr %0, ptr %2, align 8, !tbaa !3
  %3 = load ptr, ptr %2, align 8
  %4 = getelementptr inbounds nuw %"class.xgboost::collective::Comm", ptr %3, i32 0, i32 2
  %5 = load i32, ptr %4, align 8, !tbaa !14
  %6 = icmp ne i32 %5, -1
  ret i1 %6
}

; Function Attrs: mustprogress nounwind uwtable
define linkonce_odr noundef i64 @_ZNK7xgboost6common4SpanIaLm18446744073709551615EE10size_bytesEv(ptr noundef nonnull align 8 dereferenceable(16) %0) #5 comdat align 2 {
  %2 = alloca ptr, align 8
  store ptr %0, ptr %2, align 8, !tbaa !12
  %3 = load ptr, ptr %2, align 8
  %4 = call noundef i64 @_ZNK7xgboost6common4SpanIaLm18446744073709551615EE4sizeEv(ptr noundef nonnull align 8 dereferenceable(16) %3) #3
  %5 = mul i64 %4, 1
  ret i64 %5
}

; Function Attrs: inlinehint mustprogress nounwind uwtable
define linkonce_odr void @_ZN7xgboost10collective7SuccessEv(ptr dead_on_unwind noalias writable sret(%"struct.xgboost::collective::Result") align 8 %0) #6 comdat {
  %2 = alloca ptr, align 8
  store ptr %0, ptr %2, align 8
  call void @llvm.memset.p0.i64(ptr align 8 %0, i8 0, i64 8, i1 false)
  call void @_ZN7xgboost10collective6ResultC2Ev(ptr noundef nonnull align 8 dereferenceable(8) %0) #3
  ret void
}

; Function Attrs: mustprogress nounwind uwtable
define linkonce_odr noundef i32 @_ZNK7xgboost10collective4Comm5WorldEv(ptr noundef nonnull align 8 dereferenceable(184) %0) #5 comdat align 2 {
  %2 = alloca ptr, align 8
  store ptr %0, ptr %2, align 8, !tbaa !3
  %3 = load ptr, ptr %2, align 8
  %4 = call noundef zeroext i1 @_ZNK7xgboost10collective4Comm13IsDistributedEv(ptr noundef nonnull align 8 dereferenceable(184) %3) #3
  br i1 %4, label %5, label %8

5:                                                ; preds = %1
  %6 = getelementptr inbounds nuw %"class.xgboost::collective::Comm", ptr %3, i32 0, i32 2
  %7 = load i32, ptr %6, align 8, !tbaa !14
  br label %9

8:                                                ; preds = %1
  br label %9

9:                                                ; preds = %8, %5
  %10 = phi i32 [ %7, %5 ], [ 1, %8 ]
  ret i32 %10
}

; Function Attrs: mustprogress uwtable
define void @_ZN7xgboost10collective8cpu_impl13RingAllreduceERKNS0_4CommENS_6common4SpanIaLm18446744073709551615EEERKSt8functionIFvNS6_IKaLm18446744073709551615EEES7_EENS_21ArrayInterfaceHandler4TypeE(ptr dead_on_unwind noalias writable sret(%"struct.xgboost::collective::Result") align 8 %0, ptr noundef nonnull align 8 dereferenceable(184) %1, i64 %2, ptr %3, ptr noundef nonnull align 8 dereferenceable(32) %4, i8 noundef signext %5) #4 {
  %7 = alloca ptr, align 8
  %8 = alloca %"class.xgboost::common::Span", align 8
  %9 = alloca ptr, align 8
  %10 = alloca ptr, align 8
  %11 = alloca i8, align 1
  %12 = alloca %class.anon, align 8
  store ptr %0, ptr %7, align 8
  %13 = getelementptr inbounds nuw { i64, ptr }, ptr %8, i32 0, i32 0
  store i64 %2, ptr %13, align 8
  %14 = getelementptr inbounds nuw { i64, ptr }, ptr %8, i32 0, i32 1
  store ptr %3, ptr %14, align 8
  store ptr %1, ptr %9, align 8, !tbaa !3
  store ptr %4, ptr %10, align 8, !tbaa !8
  store i8 %5, ptr %11, align 1, !tbaa !10
  %15 = load ptr, ptr %9, align 8, !tbaa !3
  %16 = call noundef i32 @_ZNK7xgboost10collective4Comm5WorldEv(ptr noundef nonnull align 8 dereferenceable(184) %15) #3
  %17 = icmp eq i32 %16, 1
  br i1 %17, label %18, label %19

18:                                               ; preds = %6
  call void @_ZN7xgboost10collective7SuccessEv(ptr dead_on_unwind writable sret(%"struct.xgboost::collective::Result") align 8 %0) #3
  br label %30

19:                                               ; preds = %6
  %20 = call noundef i64 @_ZNK7xgboost6common4SpanIaLm18446744073709551615EE10size_bytesEv(ptr noundef nonnull align 8 dereferenceable(16) %8) #3
  %21 = icmp eq i64 %20, 0
  br i1 %21, label %22, label %23

22:                                               ; preds = %19
  call void @_ZN7xgboost10collective7SuccessEv(ptr dead_on_unwind writable sret(%"struct.xgboost::collective::Result") align 8 %0) #3
  br label %30

23:                                               ; preds = %19
  %24 = load i8, ptr %11, align 1, !tbaa !10
  %25 = getelementptr inbounds nuw %class.anon, ptr %12, i32 0, i32 0
  store ptr %8, ptr %25, align 8, !tbaa !12
  %26 = getelementptr inbounds nuw %class.anon, ptr %12, i32 0, i32 1
  %27 = load ptr, ptr %9, align 8, !tbaa !3
  store ptr %27, ptr %26, align 8, !tbaa !3
  %28 = getelementptr inbounds nuw %class.anon, ptr %12, i32 0, i32 2
  %29 = load ptr, ptr %10, align 8, !tbaa !8
  store ptr %29, ptr %28, align 8, !tbaa !8
  call void @"_ZN7xgboost13DispatchDTypeIZNS_10collective8cpu_impl13RingAllreduceERKNS1_4CommENS_6common4SpanIaLm18446744073709551615EEERKSt8functionIFvNS7_IKaLm18446744073709551615EEES8_EENS_21ArrayInterfaceHandler4TypeEE3$_0EEDaSH_T_"(ptr dead_on_unwind writable sret(%"struct.xgboost::collective::Result") align 8 %0, i8 noundef signext %24, ptr noundef byval(%class.anon) align 8 %12)
  br label %30

30:                                               ; preds = %23, %22, %18
  ret void
}