; Function Attrs: mustprogress uwtable
define void @_ZN7xgboost10collective8cpu_impl13RingAllreduceERKNS0_4CommENS_6common4SpanIaLm18446744073709551615EEERKSt8functionIFvNS6_IKaLm18446744073709551615EEES7_EENS_21ArrayInterfaceHandler4TypeE(ptr dead_on_unwind noalias writable sret(%"struct.xgboost::collective::Result") align 8 %0, ptr noundef nonnull align 8 dereferenceable(184) %1, i64 %2, ptr %3, ptr noundef nonnull align 8 dereferenceable(32) %4, i8 noundef signext %5) local_unnamed_addr #3 personality ptr @__gxx_personality_v0 {
  %7 = alloca %"class.xgboost::common::Span", align 8
  %8 = alloca %class.anon, align 8
  store i64 %2, ptr %7, align 8
  %9 = getelementptr inbounds nuw i8, ptr %7, i64 8
  store ptr %3, ptr %9, align 8
  %10 = getelementptr inbounds nuw i8, ptr %1, i64 24
  %11 = load i32, ptr %10, align 8, !tbaa !3
  switch i32 %11, label %13 [
    i32 -1, label %12
    i32 1, label %12
  ]

12:                                               ; preds = %6, %6
  store ptr null, ptr %0, align 8, !tbaa !33, !alias.scope !36
  br label %19

13:                                               ; preds = %6
  %14 = icmp eq i64 %2, 0
  br i1 %14, label %15, label %16

15:                                               ; preds = %13
  store ptr null, ptr %0, align 8, !tbaa !33, !alias.scope !39
  br label %19

16:                                               ; preds = %13
  store ptr %7, ptr %8, align 8, !tbaa !42
  %17 = getelementptr inbounds nuw i8, ptr %8, i64 8
  store ptr %1, ptr %17, align 8, !tbaa !44
  %18 = getelementptr inbounds nuw i8, ptr %8, i64 16
  store ptr %4, ptr %18, align 8, !tbaa !45
  call fastcc void @"_ZN7xgboost13DispatchDTypeIZNS_10collective8cpu_impl13RingAllreduceERKNS1_4CommENS_6common4SpanIaLm18446744073709551615EEERKSt8functionIFvNS7_IKaLm18446744073709551615EEES8_EENS_21ArrayInterfaceHandler4TypeEE3$_0EEDaSH_T_"(ptr dead_on_unwind noalias writable align 8 %0, i8 noundef signext %5, ptr noundef nonnull byval(%class.anon) align 8 %8)
  br label %19

19:                                               ; preds = %16, %15, %12
  ret void
}